target datalayout = "e-m:e-p270:32:32-p271:32:32-p272:64:64-i64:64-i128:128-f80:128-n8:16:32:64-S128"
target triple = "x86_64-pc-linux-gnu"

%struct.ParseContext_ = type { %struct.TokenData, i32, %union.SourceSpan, %union.SourceSpan, ptr, %struct.Lexer }
%struct.TokenData = type { ptr, i64, %union.anon.86 }
%union.anon.86 = type { %struct.anon.89 }
%struct.anon.89 = type { %struct.Int128_, i8 }
%struct.Int128_ = type { i64, i64 }
%union.SourceSpan = type { i64 }
%struct.Lexer = type { ptr, ptr, ptr, ptr, i32, i32, ptr, ptr, ptr, %struct.TokenData, %union.SourceSpan, i32, i32 }
%struct.Expr_ = type { ptr, %union.SourceSpan, i16, %union.anon.30 }
%union.anon.30 = type { %struct.ExprAnySwitch }
%struct.ExprAnySwitch = type { i8, %union.anon.32 }
%union.anon.32 = type { %struct.anon.33 }
%struct.anon.33 = type { ptr, %union.SourceSpan, ptr }
%struct.anon.0 = type { i16, i8, i8, i32 }
%struct.VHeader_ = type { i32, i32, [0 x i8] }

@poisoned_expr = external global ptr, align 8
@.str.7 = private unnamed_addr constant [105 x i8] c"Designated initialization with '[] = ...' and '.param = ...' cannot be mixed with normal initialization.\00", align 1
@.str.8 = private unnamed_addr constant [70 x i8] c"Normal initialization cannot be mixed with designated initialization.\00", align 1
@.str.22 = private unnamed_addr constant [15 x i8] c"Expected '%s'.\00", align 1

; Function Attrs: nounwind uwtable
define internal i64 @extend_span_with_token(i64 %0, i64 %1) #0 {
  %3 = alloca %union.SourceSpan, align 8
  %4 = alloca %union.SourceSpan, align 8
  %5 = alloca %union.SourceSpan, align 8
  %6 = getelementptr inbounds %union.SourceSpan, ptr %4, i32 0, i32 0
  store i64 %0, ptr %6, align 8
  %7 = getelementptr inbounds %union.SourceSpan, ptr %5, i32 0, i32 0
  store i64 %1, ptr %7, align 8
  %8 = getelementptr inbounds %struct.anon.0, ptr %4, i32 0, i32 3
  %9 = load i32, ptr %8, align 4
  %10 = getelementptr inbounds %struct.anon.0, ptr %5, i32 0, i32 3
  %11 = load i32, ptr %10, align 4
  %12 = icmp ne i32 %9, %11
  br i1 %12, label %13, label %14

13:                                               ; preds = %2
  call void @llvm.memcpy.p0.p0.i64(ptr align 8 %3, ptr align 8 %4, i64 8, i1 false)
  br label %28

14:                                               ; preds = %2
  %15 = getelementptr inbounds %struct.anon.0, ptr %5, i32 0, i32 2
  %16 = load i8, ptr %15, align 1
  %17 = zext i8 %16 to i32
  %18 = getelementptr inbounds %struct.anon.0, ptr %5, i32 0, i32 1
  %19 = load i8, ptr %18, align 2
  %20 = zext i8 %19 to i32
  %21 = add nsw i32 %17, %20
  %22 = getelementptr inbounds %struct.anon.0, ptr %4, i32 0, i32 2
  %23 = load i8, ptr %22, align 1
  %24 = zext i8 %23 to i32
  %25 = sub nsw i32 %21, %24
  %26 = trunc i32 %25 to i8
  %27 = getelementptr inbounds %struct.anon.0, ptr %4, i32 0, i32 1
  store i8 %26, ptr %27, align 2
  call void @llvm.memcpy.p0.p0.i64(ptr align 8 %3, ptr align 8 %4, i64 8, i1 false)
  br label %28

28:                                               ; preds = %14, %13
  %29 = getelementptr inbounds %union.SourceSpan, ptr %3, i32 0, i32 0
  %30 = load i64, ptr %29, align 8
  ret i64 %30
}

; Function Attrs: nounwind uwtable
define dso_local ptr @parse_initializer_list(ptr noundef %0, ptr noundef %1) #0 {
  %3 = alloca ptr, align 8
  %4 = alloca i32, align 4
  %5 = alloca i1, align 1
  %6 = alloca ptr, align 8
  %7 = alloca i32, align 4
  %8 = alloca ptr, align 8
  %9 = alloca i32, align 4
  %10 = alloca i32, align 4
  %11 = alloca ptr, align 8
  %12 = alloca ptr, align 8
  %13 = alloca ptr, align 8
  %14 = alloca ptr, align 8
  %15 = alloca ptr, align 8
  %16 = alloca ptr, align 8
  %17 = alloca ptr, align 8
  %18 = alloca i32, align 4
  %19 = alloca i32, align 4
  %20 = alloca i32, align 4
  %21 = alloca ptr, align 8
  %22 = alloca %union.SourceSpan, align 8
  %23 = alloca %union.SourceSpan, align 8
  store ptr %0, ptr %14, align 8
  store ptr %1, ptr %15, align 8
  %24 = load ptr, ptr %14, align 8
  %25 = getelementptr inbounds %struct.ParseContext_, ptr %24, i32 0, i32 2
  %26 = getelementptr inbounds %union.SourceSpan, ptr %25, i32 0, i32 0
  %27 = load i64, ptr %26, align 8
  %28 = call ptr @expr_new(i32 noundef 35, i64 %27)
  store ptr %28, ptr %16, align 8
  %29 = load ptr, ptr %14, align 8
  store ptr %29, ptr %8, align 8
  store i32 17, ptr %9, align 4
  %30 = load ptr, ptr %8, align 8
  call void @advance(ptr noundef %30) #5
  %31 = load ptr, ptr %14, align 8
  %32 = call zeroext i1 @try_consume(ptr noundef %31, i32 noundef 24)
  br i1 %32, label %143, label %33

33:                                               ; preds = %2
  store ptr null, ptr %17, align 8
  %34 = load ptr, ptr %14, align 8
  %35 = call zeroext i1 @parse_arg_list(ptr noundef %34, ptr noundef %17, i32 noundef 24, ptr noundef null, i1 noundef zeroext true)
  br i1 %35, label %38, label %36

36:                                               ; preds = %33
  %37 = load ptr, ptr @poisoned_expr, align 8
  store ptr %37, ptr %13, align 8
  br label %159

38:                                               ; preds = %33
  store i32 -1, ptr %18, align 4
  store i32 0, ptr %19, align 4
  %39 = load ptr, ptr %17, align 8
  store ptr %39, ptr %11, align 8
  %40 = load ptr, ptr %11, align 8
  %41 = icmp ne ptr %40, null
  br i1 %41, label %43, label %42

42:                                               ; preds = %38
  store i32 0, ptr %10, align 4
  br label %48

43:                                               ; preds = %38
  %44 = load ptr, ptr %11, align 8
  store ptr %44, ptr %12, align 8
  %45 = load ptr, ptr %12, align 8
  %46 = getelementptr inbounds %struct.VHeader_, ptr %45, i64 -1
  %47 = load i32, ptr %46, align 4
  store i32 %47, ptr %10, align 4
  br label %48

48:                                               ; preds = %43, %42
  %49 = load i32, ptr %10, align 4
  store i32 %49, ptr %20, align 4
  br label %50

50:                                               ; preds = %86, %48
  %51 = load i32, ptr %19, align 4
  %52 = load i32, ptr %20, align 4
  %53 = icmp ult i32 %51, %52
  br i1 %53, label %54, label %89

54:                                               ; preds = %50
  %55 = load ptr, ptr %17, align 8
  %56 = load i32, ptr %19, align 4
  %57 = zext i32 %56 to i64
  %58 = getelementptr inbounds ptr, ptr %55, i64 %57
  %59 = load ptr, ptr %58, align 8
  store ptr %59, ptr %21, align 8
  %60 = load ptr, ptr %21, align 8
  %61 = getelementptr inbounds %struct.Expr_, ptr %60, i32 0, i32 2
  %62 = load i16, ptr %61, align 8
  %63 = and i16 %62, 255
  %64 = zext i16 %63 to i32
  %65 = icmp eq i32 %64, 25
  br i1 %65, label %66, label %76

66:                                               ; preds = %54
  %67 = load i32, ptr %18, align 4
  %68 = icmp eq i32 %67, 0
  br i1 %68, label %69, label %75

69:                                               ; preds = %66
  %70 = load ptr, ptr %21, align 8
  %71 = getelementptr inbounds %struct.Expr_, ptr %70, i32 0, i32 1
  %72 = getelementptr inbounds %union.SourceSpan, ptr %71, i32 0, i32 0
  %73 = load i64, ptr %72, align 8
  call void (i64, ptr, ...) @sema_error_at(i64 %73, ptr noundef @.str.7)
  %74 = load ptr, ptr @poisoned_expr, align 8
  store ptr %74, ptr %13, align 8
  br label %159

75:                                               ; preds = %66
  store i32 1, ptr %18, align 4
  br label %86

76:                                               ; preds = %54
  %77 = load i32, ptr %18, align 4
  %78 = icmp eq i32 %77, 1
  br i1 %78, label %79, label %85

79:                                               ; preds = %76
  %80 = load ptr, ptr %21, align 8
  %81 = getelementptr inbounds %struct.Expr_, ptr %80, i32 0, i32 1
  %82 = getelementptr inbounds %union.SourceSpan, ptr %81, i32 0, i32 0
  %83 = load i64, ptr %82, align 8
  call void (i64, ptr, ...) @sema_error_at(i64 %83, ptr noundef @.str.8)
  %84 = load ptr, ptr @poisoned_expr, align 8
  store ptr %84, ptr %13, align 8
  br label %159

85:                                               ; preds = %76
  store i32 0, ptr %18, align 4
  br label %86

86:                                               ; preds = %85, %75
  %87 = load i32, ptr %19, align 4
  %88 = add i32 %87, 1
  store i32 %88, ptr %19, align 4
  br label %50, !llvm.loop !11

89:                                               ; preds = %50
  br label %90

90:                                               ; preds = %89
  %91 = load ptr, ptr %14, align 8
  store ptr %91, ptr %6, align 8
  store i32 24, ptr %7, align 4
  %92 = load ptr, ptr %6, align 8
  %93 = load i32, ptr %7, align 4
  store ptr %92, ptr %3, align 8
  store i32 %93, ptr %4, align 4
  %94 = load ptr, ptr %3, align 8
  %95 = getelementptr inbounds %struct.ParseContext_, ptr %94, i32 0, i32 1
  %96 = load i32, ptr %95, align 8
  %97 = load i32, ptr %4, align 4
  %98 = icmp eq i32 %96, %97
  br i1 %98, label %99, label %100

99:                                               ; preds = %90
  store i1 true, ptr %5, align 1
  br label %106

100:                                              ; preds = %90
  %101 = load ptr, ptr %6, align 8
  %102 = getelementptr inbounds %struct.ParseContext_, ptr %101, i32 0, i32 2
  %103 = load i32, ptr %7, align 4
  %104 = call ptr @token_type_to_string(i32 noundef %103) #5
  %105 = load i64, ptr %102, align 8
  call void (i64, ptr, ...) @sema_error_at(i64 %105, ptr noundef @.str.22, ptr noundef %104) #5
  store i1 false, ptr %5, align 1
  br label %106

106:                                              ; preds = %100, %99
  %107 = load i1, ptr %5, align 1
  br i1 %107, label %110, label %108

108:                                              ; preds = %106
  %109 = load ptr, ptr @poisoned_expr, align 8
  store ptr %109, ptr %13, align 8
  br label %159

110:                                              ; preds = %106
  %111 = load ptr, ptr %14, align 8
  call void @advance(ptr noundef %111)
  br label %112

112:                                              ; preds = %110
  br label %113

113:                                              ; preds = %112
  %114 = load ptr, ptr %16, align 8
  %115 = getelementptr inbounds %struct.Expr_, ptr %114, i32 0, i32 1
  %116 = load ptr, ptr %16, align 8
  %117 = getelementptr inbounds %struct.Expr_, ptr %116, i32 0, i32 1
  %118 = load ptr, ptr %14, align 8
  %119 = getelementptr inbounds %struct.ParseContext_, ptr %118, i32 0, i32 3
  %120 = getelementptr inbounds %union.SourceSpan, ptr %117, i32 0, i32 0
  %121 = load i64, ptr %120, align 8
  %122 = getelementptr inbounds %union.SourceSpan, ptr %119, i32 0, i32 0
  %123 = load i64, ptr %122, align 8
  %124 = call i64 @extend_span_with_token(i64 %121, i64 %123)
  %125 = getelementptr inbounds %union.SourceSpan, ptr %22, i32 0, i32 0
  store i64 %124, ptr %125, align 8
  call void @llvm.memcpy.p0.p0.i64(ptr align 8 %115, ptr align 8 %22, i64 8, i1 false)
  br label %126

126:                                              ; preds = %113
  %127 = load i32, ptr %18, align 4
  %128 = icmp eq i32 %127, 1
  br i1 %128, label %129, label %138

129:                                              ; preds = %126
  %130 = load ptr, ptr %17, align 8
  %131 = load ptr, ptr %16, align 8
  %132 = getelementptr inbounds %struct.Expr_, ptr %131, i32 0, i32 3
  store ptr %130, ptr %132, align 8
  %133 = load ptr, ptr %16, align 8
  %134 = getelementptr inbounds %struct.Expr_, ptr %133, i32 0, i32 2
  %135 = load i16, ptr %134, align 8
  %136 = and i16 %135, -256
  %137 = or i16 %136, 24
  store i16 %137, ptr %134, align 8
  br label %142

138:                                              ; preds = %126
  %139 = load ptr, ptr %17, align 8
  %140 = load ptr, ptr %16, align 8
  %141 = getelementptr inbounds %struct.Expr_, ptr %140, i32 0, i32 3
  store ptr %139, ptr %141, align 8
  br label %142

142:                                              ; preds = %138, %129
  br label %143

143:                                              ; preds = %142, %2
  br label %144

144:                                              ; preds = %143
  %145 = load ptr, ptr %16, align 8
  %146 = getelementptr inbounds %struct.Expr_, ptr %145, i32 0, i32 1
  %147 = load ptr, ptr %16, align 8
  %148 = getelementptr inbounds %struct.Expr_, ptr %147, i32 0, i32 1
  %149 = load ptr, ptr %14, align 8
  %150 = getelementptr inbounds %struct.ParseContext_, ptr %149, i32 0, i32 3
  %151 = getelementptr inbounds %union.SourceSpan, ptr %148, i32 0, i32 0
  %152 = load i64, ptr %151, align 8
  %153 = getelementptr inbounds %union.SourceSpan, ptr %150, i32 0, i32 0
  %154 = load i64, ptr %153, align 8
  %155 = call i64 @extend_span_with_token(i64 %152, i64 %154)
  %156 = getelementptr inbounds %union.SourceSpan, ptr %23, i32 0, i32 0
  store i64 %155, ptr %156, align 8
  call void @llvm.memcpy.p0.p0.i64(ptr align 8 %146, ptr align 8 %23, i64 8, i1 false)
  br label %157

157:                                              ; preds = %144
  %158 = load ptr, ptr %16, align 8
  store ptr %158, ptr %13, align 8
  br label %159

159:                                              ; preds = %157, %108, %79, %69, %36
  %160 = load ptr, ptr %13, align 8
  ret ptr %160
}