; Function Attrs: nounwind uwtable
define dso_local ptr @parse_initializer_list(ptr noundef %0, ptr nocapture readnone %1) #1 {
  %3 = alloca ptr, align 8
  %4 = getelementptr inbounds i8, ptr %0, i64 48
  %5 = load i64, ptr %4, align 8
  %6 = tail call ptr @expr_new(i32 noundef 35, i64 %5) #8
  tail call void @advance(ptr noundef %0) #8
  %7 = tail call zeroext i1 @try_consume(ptr noundef %0, i32 noundef 24) #8
  br i1 %7, label %._crit_edge63, label %8

._crit_edge63:                                    ; preds = %2
  %.phi.trans.insert = getelementptr inbounds i8, ptr %6, i64 8
  %.pre = load i64, ptr %.phi.trans.insert, align 8
  br label %63

8:                                                ; preds = %2
  store ptr null, ptr %3, align 8
  %9 = call zeroext i1 @parse_arg_list(ptr noundef nonnull %0, ptr noundef nonnull %3, i32 noundef 24, ptr noundef null, i1 noundef zeroext true)
  br i1 %9, label %12, label %10

10:                                               ; preds = %8
  %11 = load ptr, ptr @poisoned_expr, align 8
  br label %78

12:                                               ; preds = %8
  %13 = load ptr, ptr %3, align 8
  %.not = icmp eq ptr %13, null
  br i1 %.not, label %._crit_edge, label %14

14:                                               ; preds = %12
  %15 = getelementptr inbounds i8, ptr %13, i64 -8
  %16 = load i32, ptr %15, align 4
  %.not59 = icmp eq i32 %16, 0
  br i1 %.not59, label %._crit_edge, label %.lr.ph.preheader

.lr.ph.preheader:                                 ; preds = %14
  %wide.trip.count = zext i32 %16 to i64
  br label %.lr.ph

.lr.ph:                                           ; preds = %.lr.ph.preheader, %35
  %indvars.iv = phi i64 [ 0, %.lr.ph.preheader ], [ %indvars.iv.next, %35 ]
  %.04158 = phi i32 [ -1, %.lr.ph.preheader ], [ %.1, %35 ]
  %17 = getelementptr inbounds ptr, ptr %13, i64 %indvars.iv
  %18 = load ptr, ptr %17, align 8
  %19 = getelementptr inbounds i8, ptr %18, i64 16
  %20 = load i16, ptr %19, align 8
  %21 = and i16 %20, 255
  %22 = icmp eq i16 %21, 25
  br i1 %22, label %23, label %29

23:                                               ; preds = %.lr.ph
  %24 = icmp eq i32 %.04158, 0
  br i1 %24, label %25, label %35

25:                                               ; preds = %23
  %26 = getelementptr inbounds i8, ptr %18, i64 8
  %27 = load i64, ptr %26, align 8
  tail call void (i64, ptr, ...) @sema_error_at(i64 %27, ptr noundef nonnull @.str.7) #8
  %28 = load ptr, ptr @poisoned_expr, align 8
  br label %78

29:                                               ; preds = %.lr.ph
  %30 = icmp eq i32 %.04158, 1
  br i1 %30, label %31, label %35

31:                                               ; preds = %29
  %32 = getelementptr inbounds i8, ptr %18, i64 8
  %33 = load i64, ptr %32, align 8
  tail call void (i64, ptr, ...) @sema_error_at(i64 %33, ptr noundef nonnull @.str.8) #8
  %34 = load ptr, ptr @poisoned_expr, align 8
  br label %78

35:                                               ; preds = %29, %23
  %.1 = phi i32 [ 1, %23 ], [ 0, %29 ]
  %indvars.iv.next = add nuw nsw i64 %indvars.iv, 1
  %exitcond.not = icmp eq i64 %indvars.iv.next, %wide.trip.count
  br i1 %exitcond.not, label %._crit_edge, label %.lr.ph, !llvm.loop !11

._crit_edge:                                      ; preds = %35, %12, %14
  %.041.lcssa = phi i1 [ false, %14 ], [ false, %12 ], [ %22, %35 ]
  %36 = getelementptr inbounds i8, ptr %0, i64 40
  %37 = load i32, ptr %36, align 8
  %38 = icmp eq i32 %37, 24
  br i1 %38, label %.critedge, label %39

39:                                               ; preds = %._crit_edge
  %40 = tail call ptr @token_type_to_string(i32 noundef 24) #8
  %41 = load i64, ptr %4, align 8
  tail call void (i64, ptr, ...) @sema_error_at(i64 %41, ptr noundef nonnull @.str.22, ptr noundef %40) #8
  %42 = load ptr, ptr @poisoned_expr, align 8
  br label %78

.critedge:                                        ; preds = %._crit_edge
  tail call void @advance(ptr noundef nonnull %0) #8
  %43 = getelementptr inbounds i8, ptr %6, i64 8
  %44 = getelementptr inbounds i8, ptr %0, i64 56
  %45 = load i64, ptr %43, align 8
  %46 = load i64, ptr %44, align 8
  %.not.unshifted.i = xor i64 %46, %45
  %.not.i = icmp ult i64 %.not.unshifted.i, 4294967296
  br i1 %.not.i, label %48, label %47

47:                                               ; preds = %.critedge
  %.sroa.33.0.extract.shift.i = lshr i64 %45, 16
  br label %extend_span_with_token.exit

48:                                               ; preds = %.critedge
  %.sroa.4.0.extract.shift.i = lshr i64 %45, 24
  %49 = trunc i64 %46 to i32
  %50 = lshr i32 %49, 24
  %51 = lshr i32 %49, 16
  %52 = trunc i64 %.sroa.4.0.extract.shift.i to i32
  %53 = sub i32 %51, %52
  %54 = add i32 %53, %50
  %55 = zext i32 %54 to i64
  br label %extend_span_with_token.exit

extend_span_with_token.exit:                      ; preds = %47, %48
  %.sroa.311.0.i = phi i64 [ %.sroa.33.0.extract.shift.i, %47 ], [ %55, %48 ]
  %.sroa.311.0.insert.ext.i = shl nuw i64 %.sroa.311.0.i, 16
  %.sroa.311.0.insert.shift.i = and i64 %.sroa.311.0.insert.ext.i, 16711680
  %56 = and i64 %45, -16711681
  %.sroa.010.0.insert.insert.i = or disjoint i64 %.sroa.311.0.insert.shift.i, %56
  store i64 %.sroa.010.0.insert.insert.i, ptr %43, align 8
  %57 = getelementptr inbounds i8, ptr %6, i64 24
  store ptr %13, ptr %57, align 8
  br i1 %.041.lcssa, label %58, label %63

58:                                               ; preds = %extend_span_with_token.exit
  %59 = getelementptr inbounds i8, ptr %6, i64 16
  %60 = load i16, ptr %59, align 8
  %61 = and i16 %60, -256
  %62 = or disjoint i16 %61, 24
  store i16 %62, ptr %59, align 8
  br label %63

63:                                               ; preds = %extend_span_with_token.exit, %._crit_edge63, %58
  %64 = phi i64 [ %.pre, %._crit_edge63 ], [ %.sroa.010.0.insert.insert.i, %58 ], [ %.sroa.010.0.insert.insert.i, %extend_span_with_token.exit ]
  %65 = getelementptr inbounds i8, ptr %6, i64 8
  %66 = getelementptr inbounds i8, ptr %0, i64 56
  %67 = load i64, ptr %66, align 8
  %.not.unshifted.i44 = xor i64 %67, %64
  %.not.i45 = icmp ult i64 %.not.unshifted.i44, 4294967296
  br i1 %.not.i45, label %69, label %68

68:                                               ; preds = %63
  %.sroa.33.0.extract.shift.i46 = lshr i64 %64, 16
  br label %extend_span_with_token.exit52

69:                                               ; preds = %63
  %.sroa.4.0.extract.shift.i51 = lshr i64 %64, 24
  %70 = trunc i64 %67 to i32
  %71 = lshr i32 %70, 24
  %72 = lshr i32 %70, 16
  %73 = trunc i64 %.sroa.4.0.extract.shift.i51 to i32
  %74 = sub i32 %72, %73
  %75 = add i32 %74, %71
  %76 = zext i32 %75 to i64
  br label %extend_span_with_token.exit52

extend_span_with_token.exit52:                    ; preds = %68, %69
  %.sroa.311.0.i47 = phi i64 [ %.sroa.33.0.extract.shift.i46, %68 ], [ %76, %69 ]
  %.sroa.311.0.insert.ext.i48 = shl nuw i64 %.sroa.311.0.i47, 16
  %.sroa.311.0.insert.shift.i49 = and i64 %.sroa.311.0.insert.ext.i48, 16711680
  %77 = and i64 %64, -16711681
  %.sroa.010.0.insert.insert.i50 = or disjoint i64 %.sroa.311.0.insert.shift.i49, %77
  store i64 %.sroa.010.0.insert.insert.i50, ptr %65, align 8
  br label %78

78:                                               ; preds = %extend_span_with_token.exit52, %39, %31, %25, %10
  %.040 = phi ptr [ %6, %extend_span_with_token.exit52 ], [ %28, %25 ], [ %34, %31 ], [ %42, %39 ], [ %11, %10 ]
  ret ptr %.040
}